; ModuleID = '42/1553.c'
source_filename = "42/1553.c"
target datalayout = "e-m:e-p270:32:32-p271:32:32-p272:64:64-i64:64-f80:128-n8:16:32:64-S128"
target triple = "x86_64-pc-linux-gnu"

@.str = private unnamed_addr constant [3 x i8] c"%d\00", align 1
@.str.1 = private unnamed_addr constant [4 x i8] c"%d \00", align 1

; Function Attrs: noinline nounwind uwtable
define dso_local i32 @main() #0 {
  %1 = alloca i32, align 4
  %2 = alloca [100000 x i32], align 16
  %3 = alloca i32, align 4
  %4 = alloca i32, align 4
  %5 = alloca i32, align 4
  %6 = alloca i32, align 4
  store i32 0, i32* %1, align 4
  %7 = call i32 (i8*, ...) @__isoc99_scanf(i8* getelementptr inbounds ([3 x i8], [3 x i8]* @.str, i64 0, i64 0), i32* %3)
  store i32 0, i32* %4, align 4
  br label %8

8:                                                ; preds = %17, %0
  %9 = load i32, i32* %4, align 4
  %10 = load i32, i32* %3, align 4
  %11 = icmp slt i32 %9, %10
  br i1 %11, label %12, label %20

12:                                               ; preds = %8
  %13 = load i32, i32* %4, align 4
  %14 = sext i32 %13 to i64
  %15 = getelementptr inbounds [100000 x i32], [100000 x i32]* %2, i64 0, i64 %14
  %16 = call i32 (i8*, ...) @__isoc99_scanf(i8* getelementptr inbounds ([3 x i8], [3 x i8]* @.str, i64 0, i64 0), i32* %15)
  br label %17

17:                                               ; preds = %12
  %18 = load i32, i32* %4, align 4
  %19 = add nsw i32 %18, 1
  store i32 %19, i32* %4, align 4
  br label %8

20:                                               ; preds = %8
  %21 = call i32 (i8*, ...) @__isoc99_scanf(i8* getelementptr inbounds ([3 x i8], [3 x i8]* @.str, i64 0, i64 0), i32* %5)
  %22 = load i32, i32* %3, align 4
  %23 = icmp eq i32 %22, 1
  br i1 %23, label %24, label %25

24:                                               ; preds = %20
  store i32 0, i32* %6, align 4
  br label %65

25:                                               ; preds = %20
  store i32 0, i32* %4, align 4
  br label %26

26:                                               ; preds = %61, %25
  %27 = load i32, i32* %4, align 4
  %28 = load i32, i32* %3, align 4
  %29 = sub nsw i32 %28, 1
  %30 = icmp slt i32 %27, %29
  br i1 %30, label %31, label %64

31:                                               ; preds = %26
  %32 = load i32, i32* %4, align 4
  %33 = sext i32 %32 to i64
  %34 = getelementptr inbounds [100000 x i32], [100000 x i32]* %2, i64 0, i64 %33
  %35 = load i32, i32* %34, align 4
  %36 = load i32, i32* %5, align 4
  %37 = icmp ne i32 %35, %36
  br i1 %37, label %38, label %48

38:                                               ; preds = %31
  %39 = load i32, i32* %4, align 4
  %40 = add nsw i32 %39, 1
  %41 = sext i32 %40 to i64
  %42 = getelementptr inbounds [100000 x i32], [100000 x i32]* %2, i64 0, i64 %41
  %43 = load i32, i32* %42, align 4
  %44 = load i32, i32* %5, align 4
  %45 = icmp eq i32 %43, %44
  br i1 %45, label %46, label %48

46:                                               ; preds = %38
  %47 = load i32, i32* %4, align 4
  store i32 %47, i32* %6, align 4
  br label %60

48:                                               ; preds = %38, %31
  %49 = load i32, i32* %4, align 4
  %50 = add nsw i32 %49, 1
  %51 = sext i32 %50 to i64
  %52 = getelementptr inbounds [100000 x i32], [100000 x i32]* %2, i64 0, i64 %51
  %53 = load i32, i32* %52, align 4
  %54 = load i32, i32* %5, align 4
  %55 = icmp ne i32 %53, %54
  br i1 %55, label %56, label %59

56:                                               ; preds = %48
  %57 = load i32, i32* %4, align 4
  %58 = add nsw i32 %57, 1
  store i32 %58, i32* %6, align 4
  br label %59

59:                                               ; preds = %56, %48
  br label %60

60:                                               ; preds = %59, %46
  br label %61

61:                                               ; preds = %60
  %62 = load i32, i32* %4, align 4
  %63 = add nsw i32 %62, 1
  store i32 %63, i32* %4, align 4
  br label %26

64:                                               ; preds = %26
  br label %65

65:                                               ; preds = %64, %24
  store i32 0, i32* %4, align 4
  br label %66

66:                                               ; preds = %106, %65
  %67 = load i32, i32* %4, align 4
  %68 = load i32, i32* %3, align 4
  %69 = icmp slt i32 %67, %68
  br i1 %69, label %70, label %109

70:                                               ; preds = %66
  %71 = load i32, i32* %4, align 4
  %72 = sext i32 %71 to i64
  %73 = getelementptr inbounds [100000 x i32], [100000 x i32]* %2, i64 0, i64 %72
  %74 = load i32, i32* %73, align 4
  %75 = load i32, i32* %5, align 4
  %76 = icmp ne i32 %74, %75
  br i1 %76, label %77, label %87

77:                                               ; preds = %70
  %78 = load i32, i32* %4, align 4
  %79 = load i32, i32* %6, align 4
  %80 = icmp ne i32 %78, %79
  br i1 %80, label %81, label %87

81:                                               ; preds = %77
  %82 = load i32, i32* %4, align 4
  %83 = sext i32 %82 to i64
  %84 = getelementptr inbounds [100000 x i32], [100000 x i32]* %2, i64 0, i64 %83
  %85 = load i32, i32* %84, align 4
  %86 = call i32 (i8*, ...) @printf(i8* getelementptr inbounds ([4 x i8], [4 x i8]* @.str.1, i64 0, i64 0), i32 %85)
  br label %105

87:                                               ; preds = %77, %70
  %88 = load i32, i32* %4, align 4
  %89 = sext i32 %88 to i64
  %90 = getelementptr inbounds [100000 x i32], [100000 x i32]* %2, i64 0, i64 %89
  %91 = load i32, i32* %90, align 4
  %92 = load i32, i32* %5, align 4
  %93 = icmp ne i32 %91, %92
  br i1 %93, label %94, label %104

94:                                               ; preds = %87
  %95 = load i32, i32* %4, align 4
  %96 = load i32, i32* %6, align 4
  %97 = icmp eq i32 %95, %96
  br i1 %97, label %98, label %104

98:                                               ; preds = %94
  %99 = load i32, i32* %4, align 4
  %100 = sext i32 %99 to i64
  %101 = getelementptr inbounds [100000 x i32], [100000 x i32]* %2, i64 0, i64 %100
  %102 = load i32, i32* %101, align 4
  %103 = call i32 (i8*, ...) @printf(i8* getelementptr inbounds ([3 x i8], [3 x i8]* @.str, i64 0, i64 0), i32 %102)
  br label %104

104:                                              ; preds = %98, %94, %87
  br label %105

105:                                              ; preds = %104, %81
  br label %106

106:                                              ; preds = %105
  %107 = load i32, i32* %4, align 4
  %108 = add nsw i32 %107, 1
  store i32 %108, i32* %4, align 4
  br label %66

109:                                              ; preds = %66
  ret i32 0
}

declare dso_local i32 @__isoc99_scanf(i8*, ...) #1

declare dso_local i32 @printf(i8*, ...) #1


!llvm.module.flags = !{!0}
!llvm.ident = !{!1}

!0 = !{i32 1, !"wchar_size", i32 4}
!1 = !{!"clang version 10.0.0-4ubuntu1 "}
